target datalayout = "e-m:e-p270:32:32-p271:32:32-p272:64:64-i64:64-i128:128-f80:128-n8:16:32:64-S128"
target triple = "x86_64-pc-linux-gnu"

%union.ListCell = type { ptr }
%struct.FormData_pg_proc = type { i32, %struct.nameData, i32, i32, i32, float, float, i32, i32, i8, i8, i8, i8, i8, i8, i8, i16, i16, i32, %struct.oidvector }
%struct.nameData = type { [64 x i8] }
%struct.oidvector = type { i32, i32, i32, i32, i32, i32, [0 x i32] }
%struct.HeapTupleData = type { i32, %struct.ItemPointerData, i32, ptr }
%struct.ItemPointerData = type { %struct.BlockIdData, i16 }
%struct.BlockIdData = type { i16, i16 }
%struct.HeapTupleHeaderData = type { %union.anon, %struct.ItemPointerData, i16, i16, i8, [0 x i8] }
%union.anon = type { %struct.HeapTupleFields }
%struct.HeapTupleFields = type { i32, i32, %union.anon.0 }
%union.anon.0 = type { i32 }

@.str.1 = private unnamed_addr constant [10 x i8] c"regproc.c\00", align 1
@.str.8 = private unnamed_addr constant [46 x i8] c"cache lookup failed for procedure with OID %u\00", align 1
@__func__.format_procedure_parts = private unnamed_addr constant [23 x i8] c"format_procedure_parts\00", align 1

; Function Attrs: inlinehint nounwind uwtable
define internal ptr @GETSTRUCT(ptr noundef %0) #2 {
  %2 = alloca ptr, align 8
  store ptr %0, ptr %2, align 8
  %3 = load ptr, ptr %2, align 8
  %4 = getelementptr inbounds nuw %struct.HeapTupleData, ptr %3, i32 0, i32 3
  %5 = load ptr, ptr %4, align 8
  %6 = load ptr, ptr %2, align 8
  %7 = getelementptr inbounds nuw %struct.HeapTupleData, ptr %6, i32 0, i32 3
  %8 = load ptr, ptr %7, align 8
  %9 = getelementptr inbounds nuw %struct.HeapTupleHeaderData, ptr %8, i32 0, i32 4
  %10 = load i8, ptr %9, align 2
  %11 = zext i8 %10 to i32
  %12 = sext i32 %11 to i64
  %13 = getelementptr inbounds i8, ptr %5, i64 %12
  ret ptr %13
}

; Function Attrs: inlinehint nounwind uwtable
define internal i64 @ObjectIdGetDatum(i32 noundef %0) #2 {
  %2 = alloca i32, align 4
  store i32 %0, ptr %2, align 4
  %3 = load i32, ptr %2, align 4
  %4 = zext i32 %3 to i64
  ret i64 %4
}

; Function Attrs: nounwind uwtable
define dso_local void @format_procedure_parts(i32 noundef %0, ptr noundef %1, ptr noundef %2, i1 noundef zeroext %3) #0 {
  %5 = alloca i32, align 4
  %6 = alloca ptr, align 8
  %7 = alloca ptr, align 8
  %8 = alloca i8, align 1
  %9 = alloca ptr, align 8
  %10 = alloca ptr, align 8
  %11 = alloca i32, align 4
  %12 = alloca i32, align 4
  %13 = alloca i32, align 4
  %14 = alloca %union.ListCell, align 8
  %15 = alloca %union.ListCell, align 8
  %16 = alloca i32, align 4
  store i32 %0, ptr %5, align 4
  store ptr %1, ptr %6, align 8
  store ptr %2, ptr %7, align 8
  %17 = zext i1 %3 to i8
  store i8 %17, ptr %8, align 1
  call void @llvm.lifetime.start.p0(i64 8, ptr %9) #8
  call void @llvm.lifetime.start.p0(i64 8, ptr %10) #8
  call void @llvm.lifetime.start.p0(i64 4, ptr %11) #8
  call void @llvm.lifetime.start.p0(i64 4, ptr %12) #8
  %18 = load i32, ptr %5, align 4
  %19 = call i64 @ObjectIdGetDatum(i32 noundef %18)
  %20 = call ptr @SearchSysCache1(i32 noundef 47, i64 noundef %19)
  store ptr %20, ptr %9, align 8
  %21 = load ptr, ptr %9, align 8
  %22 = icmp ne ptr %21, null
  br i1 %22, label %39, label %23

23:                                               ; preds = %4
  %24 = load i8, ptr %8, align 1, !range !7, !noundef !8
  %25 = trunc i8 %24 to i1
  br i1 %25, label %38, label %26

26:                                               ; preds = %23
  br label %27

27:                                               ; preds = %26
  br i1 true, label %28, label %30

28:                                               ; preds = %27
  %29 = call zeroext i1 @errstart_cold(i32 noundef 21, ptr noundef null) #9
  br i1 %29, label %32, label %35

30:                                               ; preds = %27
  %31 = call zeroext i1 @errstart(i32 noundef 21, ptr noundef null)
  br i1 %31, label %32, label %35

32:                                               ; preds = %30, %28
  %33 = load i32, ptr %5, align 4
  %34 = call i32 (ptr, ...) @errmsg_internal(ptr noundef @.str.8, i32 noundef %33)
  call void @errfinish(ptr noundef @.str.1, i32 noundef 411, ptr noundef @__func__.format_procedure_parts)
  br label %35

35:                                               ; preds = %32, %30, %28
  unreachable

36:                                               ; No predecessors!
  br label %37

37:                                               ; preds = %36
  br label %38

38:                                               ; preds = %37, %23
  store i32 1, ptr %13, align 4
  br label %85

39:                                               ; preds = %4
  %40 = load ptr, ptr %9, align 8
  %41 = call ptr @GETSTRUCT(ptr noundef %40)
  store ptr %41, ptr %10, align 8
  %42 = load ptr, ptr %10, align 8
  %43 = getelementptr inbounds nuw %struct.FormData_pg_proc, ptr %42, i32 0, i32 16
  %44 = load i16, ptr %43, align 4
  %45 = sext i16 %44 to i32
  store i32 %45, ptr %11, align 4
  %46 = load ptr, ptr %10, align 8
  %47 = getelementptr inbounds nuw %struct.FormData_pg_proc, ptr %46, i32 0, i32 2
  %48 = load i32, ptr %47, align 4
  %49 = call ptr @get_namespace_name_or_temp(i32 noundef %48)
  store ptr %49, ptr %14, align 8
  %50 = load ptr, ptr %10, align 8
  %51 = getelementptr inbounds nuw %struct.FormData_pg_proc, ptr %50, i32 0, i32 1
  %52 = getelementptr inbounds nuw %struct.nameData, ptr %51, i32 0, i32 0
  %53 = getelementptr inbounds [64 x i8], ptr %52, i64 0, i64 0
  %54 = call ptr @pstrdup(ptr noundef %53)
  store ptr %54, ptr %15, align 8
  %55 = getelementptr inbounds nuw %union.ListCell, ptr %14, i32 0, i32 0
  %56 = load ptr, ptr %55, align 8
  %57 = getelementptr inbounds nuw %union.ListCell, ptr %15, i32 0, i32 0
  %58 = load ptr, ptr %57, align 8
  %59 = call ptr @list_make2_impl(i32 noundef 1, ptr %56, ptr %58)
  %60 = load ptr, ptr %6, align 8
  store ptr %59, ptr %60, align 8
  %61 = load ptr, ptr %7, align 8
  store ptr null, ptr %61, align 8
  store i32 0, ptr %12, align 4
  br label %62

62:                                               ; preds = %80, %39
  %63 = load i32, ptr %12, align 4
  %64 = load i32, ptr %11, align 4
  %65 = icmp slt i32 %63, %64
  br i1 %65, label %66, label %83

66:                                               ; preds = %62
  call void @llvm.lifetime.start.p0(i64 4, ptr %16) #8
  %67 = load ptr, ptr %10, align 8
  %68 = getelementptr inbounds nuw %struct.FormData_pg_proc, ptr %67, i32 0, i32 19
  %69 = getelementptr inbounds nuw %struct.oidvector, ptr %68, i32 0, i32 6
  %70 = load i32, ptr %12, align 4
  %71 = sext i32 %70 to i64
  %72 = getelementptr inbounds [0 x i32], ptr %69, i64 0, i64 %71
  %73 = load i32, ptr %72, align 4
  store i32 %73, ptr %16, align 4
  %74 = load ptr, ptr %7, align 8
  %75 = load ptr, ptr %74, align 8
  %76 = load i32, ptr %16, align 4
  %77 = call ptr @format_type_be_qualified(i32 noundef %76)
  %78 = call ptr @lappend(ptr noundef %75, ptr noundef %77)
  %79 = load ptr, ptr %7, align 8
  store ptr %78, ptr %79, align 8
  call void @llvm.lifetime.end.p0(i64 4, ptr %16) #8
  br label %80

80:                                               ; preds = %66
  %81 = load i32, ptr %12, align 4
  %82 = add i32 %81, 1
  store i32 %82, ptr %12, align 4
  br label %62, !llvm.loop !15

83:                                               ; preds = %62
  %84 = load ptr, ptr %9, align 8
  call void @ReleaseSysCache(ptr noundef %84)
  store i32 0, ptr %13, align 4
  br label %85

85:                                               ; preds = %83, %38
  call void @llvm.lifetime.end.p0(i64 4, ptr %12) #8
  call void @llvm.lifetime.end.p0(i64 4, ptr %11) #8
  call void @llvm.lifetime.end.p0(i64 8, ptr %10) #8
  call void @llvm.lifetime.end.p0(i64 8, ptr %9) #8
  %86 = load i32, ptr %13, align 4
  switch i32 %86, label %88 [
    i32 0, label %87
    i32 1, label %87
  ]

87:                                               ; preds = %85, %85
  ret void

88:                                               ; preds = %85
  unreachable
}