; Function Attrs: nounwind uwtable
define dso_local void @format_procedure_parts(i32 noundef %0, ptr noundef writeonly captures(none) %1, ptr noundef writeonly captures(none) %2, i1 noundef zeroext %3) local_unnamed_addr #0 {
  %5 = zext i32 %0 to i64
  %6 = tail call ptr @SearchSysCache1(i32 noundef 47, i64 noundef %5) #9
  %.not = icmp eq ptr %6, null
  br i1 %.not, label %7, label %11

7:                                                ; preds = %4
  br i1 %3, label %33, label %8

8:                                                ; preds = %7
  %9 = tail call zeroext i1 @errstart_cold(i32 noundef 21, ptr noundef null) #10
  tail call void @llvm.assume(i1 %9)
  %10 = tail call i32 (ptr, ...) @errmsg_internal(ptr noundef nonnull @.str.8, i32 noundef %0) #9
  tail call void @errfinish(ptr noundef nonnull @.str.1, i32 noundef 411, ptr noundef nonnull @__func__.format_procedure_parts) #9
  unreachable

11:                                               ; preds = %4
  %12 = getelementptr i8, ptr %6, i64 16
  %.val = load ptr, ptr %12, align 8
  %13 = getelementptr inbounds nuw i8, ptr %.val, i64 22
  %14 = load i8, ptr %13, align 2
  %15 = zext i8 %14 to i64
  %16 = getelementptr inbounds nuw i8, ptr %.val, i64 %15
  %17 = getelementptr inbounds nuw i8, ptr %16, i64 104
  %18 = load i16, ptr %17, align 4
  %19 = getelementptr inbounds nuw i8, ptr %16, i64 68
  %20 = load i32, ptr %19, align 4
  %21 = tail call ptr @get_namespace_name_or_temp(i32 noundef %20) #9
  %22 = getelementptr inbounds nuw i8, ptr %16, i64 4
  %23 = tail call ptr @pstrdup(ptr noundef nonnull %22) #9
  %24 = tail call ptr @list_make2_impl(i32 noundef 1, ptr %21, ptr %23) #9
  store ptr %24, ptr %1, align 8
  store ptr null, ptr %2, align 8
  %25 = icmp sgt i16 %18, 0
  br i1 %25, label %.lr.ph, label %._crit_edge

.lr.ph:                                           ; preds = %11
  %wide.trip.count = zext nneg i16 %18 to i64
  %26 = getelementptr inbounds nuw i8, ptr %16, i64 136
  br label %27

27:                                               ; preds = %.lr.ph, %27
  %28 = phi ptr [ null, %.lr.ph ], [ %32, %27 ]
  %indvars.iv = phi i64 [ 0, %.lr.ph ], [ %indvars.iv.next, %27 ]
  %29 = getelementptr inbounds nuw [0 x i32], ptr %26, i64 0, i64 %indvars.iv
  %30 = load i32, ptr %29, align 4
  %31 = tail call ptr @format_type_be_qualified(i32 noundef %30) #9
  %32 = tail call ptr @lappend(ptr noundef %28, ptr noundef %31) #9
  store ptr %32, ptr %2, align 8
  %indvars.iv.next = add nuw nsw i64 %indvars.iv, 1
  %exitcond.not = icmp eq i64 %indvars.iv.next, %wide.trip.count
  br i1 %exitcond.not, label %._crit_edge, label %27, !llvm.loop !13

._crit_edge:                                      ; preds = %27, %11
  tail call void @ReleaseSysCache(ptr noundef nonnull %6) #9
  br label %33

33:                                               ; preds = %7, %._crit_edge
  ret void
}